target datalayout = "e-m:e-p270:32:32-p271:32:32-p272:64:64-i64:64-i128:128-f80:128-n8:16:32:64-S128"
target triple = "x86_64-pc-linux-gnu"

%"class.llvm::SmallVectorBase" = type { ptr, i32, i32 }
%"class.clang::SourceLocation" = type { i32 }
%"class.clang::format::AnnotatedLine" = type { ptr, ptr, %"class.llvm::SmallVector.27", i32, i32, i32, i64, i64, i8, i8, i8, i8, i8, i8, i8, i8, i8, i8, i8, i8, i32 }
%"class.llvm::SmallVector.27" = type { %"class.llvm::SmallVectorImpl" }
%"class.llvm::SmallVectorImpl" = type { %"class.llvm::SmallVectorTemplateBase" }
%"class.llvm::SmallVectorTemplateBase" = type { %"class.llvm::SmallVectorTemplateCommon" }
%"class.llvm::SmallVectorTemplateCommon" = type { %"class.llvm::SmallVectorBase" }
%"struct.clang::format::FormatToken" = type <{ %"class.clang::Token", %"class.llvm::StringRef", %"class.std::shared_ptr.29", %"class.clang::SourceRange", i8, i16, i8, i32, i32, i32, i32, i32, i32, i32, i32, i32, i16, [2 x i8], i32, i32, i32, i32, i32, i32, i32, i32, i32, i32, [4 x i8], %"class.llvm::SmallVector.32", i32, i32, ptr, ptr, ptr, ptr, i8, i8, i8, i8, i8, i8, [2 x i8], %"class.llvm::SmallVector.37", %"class.std::optional.39", i8, [7 x i8] }>
%"class.clang::Token" = type <{ i32, i32, ptr, i16, i16, [4 x i8] }>
%"class.llvm::StringRef" = type { ptr, i64 }
%"class.std::shared_ptr.29" = type { %"class.std::__shared_ptr.30" }
%"class.std::__shared_ptr.30" = type { ptr, %"class.std::__shared_count" }
%"class.std::__shared_count" = type { ptr }
%"class.clang::SourceRange" = type { %"class.clang::SourceLocation", %"class.clang::SourceLocation" }
%"class.llvm::SmallVector.32" = type { %"class.llvm::SmallVectorImpl.33", %"struct.llvm::SmallVectorStorage.36" }
%"class.llvm::SmallVectorImpl.33" = type { %"class.llvm::SmallVectorTemplateBase.34" }
%"class.llvm::SmallVectorTemplateBase.34" = type { %"class.llvm::SmallVectorTemplateCommon.35" }
%"class.llvm::SmallVectorTemplateCommon.35" = type { %"class.llvm::SmallVectorBase" }
%"struct.llvm::SmallVectorStorage.36" = type { [16 x i8] }
%"class.llvm::SmallVector.37" = type { %"class.llvm::SmallVectorImpl", %"struct.llvm::SmallVectorStorage.38" }
%"struct.llvm::SmallVectorStorage.38" = type { [8 x i8] }
%"class.std::optional.39" = type { %"struct.std::_Optional_base.40" }
%"struct.std::_Optional_base.40" = type { %"struct.std::_Optional_payload.42" }
%"struct.std::_Optional_payload.42" = type { %"struct.std::_Optional_payload.base.51", [7 x i8] }
%"struct.std::_Optional_payload.base.51" = type { %"struct.std::_Optional_payload_base.base.50" }
%"struct.std::_Optional_payload_base.base.50" = type <{ %"union.std::_Optional_payload_base<clang::format::MacroExpansion>::_Storage", i8 }>
%"union.std::_Optional_payload_base<clang::format::MacroExpansion>::_Storage" = type { %"struct.clang::format::MacroExpansion" }
%"struct.clang::format::MacroExpansion" = type { i32, %"class.llvm::SmallVector.45", i32, i32 }
%"class.llvm::SmallVector.45" = type { %"class.llvm::SmallVectorImpl.46", %"struct.llvm::SmallVectorStorage.49" }
%"class.llvm::SmallVectorImpl.46" = type { %"class.llvm::SmallVectorTemplateBase.47" }
%"class.llvm::SmallVectorTemplateBase.47" = type { %"class.llvm::SmallVectorTemplateCommon.48" }
%"class.llvm::SmallVectorTemplateCommon.48" = type { %"class.llvm::SmallVectorBase" }
%"struct.llvm::SmallVectorStorage.49" = type { [8 x i8] }

; Function Attrs: mustprogress nounwind uwtable
define internal noundef zeroext i1 @_ZN5clang6format12_GLOBAL__N_110LineJoiner19nextTwoLinesFitIntoEPKPNS0_13AnnotatedLineEj(ptr noundef nonnull align 8 dereferenceable(40) %0, ptr noundef %1, i32 noundef %2) #0 align 2 {
  %4 = alloca i1, align 1
  %5 = alloca ptr, align 8
  %6 = alloca ptr, align 8
  %7 = alloca i32, align 4
  store ptr %0, ptr %5, align 8
  store ptr %1, ptr %6, align 8
  store i32 %2, ptr %7, align 4
  %8 = load ptr, ptr %6, align 8
  %9 = getelementptr inbounds ptr, ptr %8, i64 1
  %10 = load ptr, ptr %9, align 8
  %11 = getelementptr inbounds nuw %"class.clang::format::AnnotatedLine", ptr %10, i32 0, i32 0
  %12 = load ptr, ptr %11, align 8
  %13 = getelementptr inbounds nuw %"struct.clang::format::FormatToken", ptr %12, i32 0, i32 4
  %14 = load i8, ptr %13, align 8
  %15 = lshr i8 %14, 3
  %16 = and i8 %15, 1
  %17 = zext i8 %16 to i32
  %18 = icmp ne i32 %17, 0
  br i1 %18, label %31, label %19

19:                                               ; preds = %3
  %20 = load ptr, ptr %6, align 8
  %21 = getelementptr inbounds ptr, ptr %20, i64 2
  %22 = load ptr, ptr %21, align 8
  %23 = getelementptr inbounds nuw %"class.clang::format::AnnotatedLine", ptr %22, i32 0, i32 0
  %24 = load ptr, ptr %23, align 8
  %25 = getelementptr inbounds nuw %"struct.clang::format::FormatToken", ptr %24, i32 0, i32 4
  %26 = load i8, ptr %25, align 8
  %27 = lshr i8 %26, 3
  %28 = and i8 %27, 1
  %29 = zext i8 %28 to i32
  %30 = icmp ne i32 %29, 0
  br i1 %30, label %31, label %32

31:                                               ; preds = %19, %3
  store i1 false, ptr %4, align 1
  br label %52

32:                                               ; preds = %19
  %33 = load ptr, ptr %6, align 8
  %34 = getelementptr inbounds ptr, ptr %33, i64 1
  %35 = load ptr, ptr %34, align 8
  %36 = getelementptr inbounds nuw %"class.clang::format::AnnotatedLine", ptr %35, i32 0, i32 1
  %37 = load ptr, ptr %36, align 8
  %38 = getelementptr inbounds nuw %"struct.clang::format::FormatToken", ptr %37, i32 0, i32 18
  %39 = load i32, ptr %38, align 4
  %40 = add i32 1, %39
  %41 = add i32 %40, 1
  %42 = load ptr, ptr %6, align 8
  %43 = getelementptr inbounds ptr, ptr %42, i64 2
  %44 = load ptr, ptr %43, align 8
  %45 = getelementptr inbounds nuw %"class.clang::format::AnnotatedLine", ptr %44, i32 0, i32 1
  %46 = load ptr, ptr %45, align 8
  %47 = getelementptr inbounds nuw %"struct.clang::format::FormatToken", ptr %46, i32 0, i32 18
  %48 = load i32, ptr %47, align 4
  %49 = add i32 %41, %48
  %50 = load i32, ptr %7, align 4
  %51 = icmp ule i32 %49, %50
  store i1 %51, ptr %4, align 1
  br label %52

52:                                               ; preds = %32, %31
  %53 = load i1, ptr %4, align 1
  ret i1 %53
}