; Function Attrs: mustprogress nofree norecurse nosync nounwind willreturn memory(read, inaccessiblemem: none) uwtable
define internal fastcc noundef zeroext i1 @_ZN5clang6format12_GLOBAL__N_110LineJoiner19nextTwoLinesFitIntoEPKPNS0_13AnnotatedLineEj(ptr noundef readonly captures(none) %0, i32 noundef %1) unnamed_addr #2 align 2 {
  %3 = getelementptr inbounds nuw i8, ptr %0, i64 8
  %4 = load ptr, ptr %3, align 8
  %5 = load ptr, ptr %4, align 8
  %6 = getelementptr inbounds nuw i8, ptr %5, i64 64
  %7 = load i8, ptr %6, align 8
  %8 = and i8 %7, 8
  %.not = icmp eq i8 %8, 0
  br i1 %.not, label %9, label %28

9:                                                ; preds = %2
  %10 = getelementptr inbounds nuw i8, ptr %0, i64 16
  %11 = load ptr, ptr %10, align 8
  %12 = load ptr, ptr %11, align 8
  %13 = getelementptr inbounds nuw i8, ptr %12, i64 64
  %14 = load i8, ptr %13, align 8
  %15 = and i8 %14, 8
  %.not5 = icmp eq i8 %15, 0
  br i1 %.not5, label %16, label %28

16:                                               ; preds = %9
  %17 = getelementptr inbounds nuw i8, ptr %4, i64 8
  %18 = load ptr, ptr %17, align 8
  %19 = getelementptr inbounds nuw i8, ptr %18, i64 108
  %20 = load i32, ptr %19, align 4
  %21 = add i32 %20, 2
  %22 = getelementptr inbounds nuw i8, ptr %11, i64 8
  %23 = load ptr, ptr %22, align 8
  %24 = getelementptr inbounds nuw i8, ptr %23, i64 108
  %25 = load i32, ptr %24, align 4
  %26 = add i32 %21, %25
  %27 = icmp ule i32 %26, %1
  br label %28

28:                                               ; preds = %2, %9, %16
  %.0 = phi i1 [ %27, %16 ], [ false, %9 ], [ false, %2 ]
  ret i1 %.0
}